; Function Attrs: nofree norecurse nosync nounwind memory(read, argmem: readwrite, inaccessiblemem: none) uwtable
define internal void @vertical_compose_fidelityiH0_12bit(ptr noundef captures(none) %0, ptr noundef readonly captures(none) %1, i32 noundef %2) #4 {
  %4 = load ptr, ptr %1, align 8, !tbaa !22
  %5 = getelementptr inbounds nuw i8, ptr %1, i64 8
  %6 = load ptr, ptr %5, align 8, !tbaa !22
  %7 = getelementptr inbounds nuw i8, ptr %1, i64 16
  %8 = load ptr, ptr %7, align 8, !tbaa !22
  %9 = getelementptr inbounds nuw i8, ptr %1, i64 24
  %10 = load ptr, ptr %9, align 8, !tbaa !22
  %11 = getelementptr inbounds nuw i8, ptr %1, i64 32
  %12 = load ptr, ptr %11, align 8, !tbaa !22
  %13 = getelementptr inbounds nuw i8, ptr %1, i64 40
  %14 = load ptr, ptr %13, align 8, !tbaa !22
  %15 = getelementptr inbounds nuw i8, ptr %1, i64 48
  %16 = load ptr, ptr %15, align 8, !tbaa !22
  %17 = getelementptr inbounds nuw i8, ptr %1, i64 56
  %18 = load ptr, ptr %17, align 8, !tbaa !22
  %19 = icmp sgt i32 %2, 0
  br i1 %19, label %.lr.ph.preheader, label %._crit_edge

.lr.ph.preheader:                                 ; preds = %3
  %wide.trip.count = zext nneg i32 %2 to i64
  br label %.lr.ph

.lr.ph:                                           ; preds = %.lr.ph.preheader, %.lr.ph
  %indvars.iv = phi i64 [ 0, %.lr.ph.preheader ], [ %indvars.iv.next, %.lr.ph ]
  %20 = getelementptr inbounds nuw i32, ptr %0, i64 %indvars.iv
  %21 = load i32, ptr %20, align 4, !tbaa !70
  %22 = getelementptr inbounds nuw i32, ptr %4, i64 %indvars.iv
  %23 = load i32, ptr %22, align 4, !tbaa !70
  %24 = getelementptr inbounds nuw i32, ptr %18, i64 %indvars.iv
  %25 = load i32, ptr %24, align 4, !tbaa !70
  %26 = add i32 %25, %23
  %27 = getelementptr inbounds nuw i32, ptr %6, i64 %indvars.iv
  %28 = load i32, ptr %27, align 4, !tbaa !70
  %29 = getelementptr inbounds nuw i32, ptr %16, i64 %indvars.iv
  %30 = load i32, ptr %29, align 4, !tbaa !70
  %31 = add i32 %30, %28
  %32 = mul i32 %31, 10
  %33 = getelementptr inbounds nuw i32, ptr %8, i64 %indvars.iv
  %34 = load i32, ptr %33, align 4, !tbaa !70
  %35 = getelementptr inbounds nuw i32, ptr %14, i64 %indvars.iv
  %36 = load i32, ptr %35, align 4, !tbaa !70
  %37 = add i32 %36, %34
  %.neg = mul i32 %37, -25
  %38 = getelementptr inbounds nuw i32, ptr %10, i64 %indvars.iv
  %39 = load i32, ptr %38, align 4, !tbaa !70
  %40 = getelementptr inbounds nuw i32, ptr %12, i64 %indvars.iv
  %41 = load i32, ptr %40, align 4, !tbaa !70
  %42 = add i32 %41, %39
  %43 = mul i32 %42, 81
  %44 = shl i32 %26, 1
  %reass.sub = sub i32 %32, %44
  %45 = add i32 %reass.sub, 128
  %46 = add i32 %45, %.neg
  %47 = add i32 %46, %43
  %48 = ashr i32 %47, 8
  %49 = add i32 %48, %21
  store i32 %49, ptr %20, align 4, !tbaa !70
  %indvars.iv.next = add nuw nsw i64 %indvars.iv, 1
  %exitcond.not = icmp eq i64 %indvars.iv.next, %wide.trip.count
  br i1 %exitcond.not, label %._crit_edge, label %.lr.ph, !llvm.loop !118

._crit_edge:                                      ; preds = %.lr.ph, %3
  ret void
}